; Function Attrs: mustprogress nofree norecurse nosync nounwind willreturn memory(read, inaccessiblemem: none) uwtable
define dso_local noundef range(i32 2, 1025) i32 @_ZNK4llvm10X86TTIImpl18getScatterOverheadEv(ptr noundef nonnull readonly align 8 captures(none) dereferenceable(72) %0) local_unnamed_addr #0 align 2 {
  %2 = getelementptr inbounds nuw i8, ptr %0, i64 16
  %3 = load ptr, ptr %2, align 8
  %4 = getelementptr inbounds nuw i8, ptr %3, i64 304
  %5 = load i32, ptr %4, align 8
  %6 = icmp sgt i32 %5, 8
  %. = select i1 %6, i32 2, i32 1024
  ret i32 %.
}